target datalayout = "e-m:e-p270:32:32-p271:32:32-p272:64:64-i64:64-i128:128-f80:128-n8:16:32:64-S128"
target triple = "x86_64-pc-linux-gnu"

%struct.translation_ctx_st = type { ptr, i32, i32, ptr, i32, i32, ptr, i64, ptr, ptr, [50 x i8], ptr, ptr, i64 }
%struct.ossl_param_st = type { ptr, i32, ptr, i64, i64 }

@.str = private unnamed_addr constant [46 x i8] c"../openssl/crypto/evp/ctrl_params_translate.c\00", align 1
@__func__.get_ec_decoded_from_explicit_params = private unnamed_addr constant [36 x i8] c"get_ec_decoded_from_explicit_params\00", align 1

; Function Attrs: nounwind uwtable
define internal i32 @get_payload_int(i32 noundef %0, ptr noundef %1, ptr noundef %2, i32 noundef %3) #0 {
  %5 = alloca i32, align 4
  %6 = alloca i32, align 4
  %7 = alloca ptr, align 8
  %8 = alloca ptr, align 8
  %9 = alloca i32, align 4
  store i32 %0, ptr %6, align 4, !tbaa !8
  store ptr %1, ptr %7, align 8, !tbaa !11
  store ptr %2, ptr %8, align 8, !tbaa !43
  store i32 %3, ptr %9, align 4, !tbaa !8
  %10 = load ptr, ptr %8, align 8, !tbaa !43
  %11 = getelementptr inbounds nuw %struct.translation_ctx_st, ptr %10, i32 0, i32 8
  %12 = load ptr, ptr %11, align 8, !tbaa !42
  %13 = getelementptr inbounds nuw %struct.ossl_param_st, ptr %12, i32 0, i32 1
  %14 = load i32, ptr %13, align 8, !tbaa !62
  %15 = icmp ne i32 %14, 1
  br i1 %15, label %16, label %17

16:                                               ; preds = %4
  store i32 0, ptr %5, align 4
  br label %27

17:                                               ; preds = %4
  %18 = load i32, ptr %9, align 4, !tbaa !8
  %19 = load ptr, ptr %8, align 8, !tbaa !43
  %20 = getelementptr inbounds nuw %struct.translation_ctx_st, ptr %19, i32 0, i32 5
  store i32 %18, ptr %20, align 4, !tbaa !39
  %21 = load ptr, ptr %8, align 8, !tbaa !43
  %22 = getelementptr inbounds nuw %struct.translation_ctx_st, ptr %21, i32 0, i32 6
  store ptr null, ptr %22, align 8, !tbaa !40
  %23 = load i32, ptr %6, align 4, !tbaa !8
  %24 = load ptr, ptr %7, align 8, !tbaa !11
  %25 = load ptr, ptr %8, align 8, !tbaa !43
  %26 = call i32 @default_fixup_args(i32 noundef %23, ptr noundef %24, ptr noundef %25)
  store i32 %26, ptr %5, align 4
  br label %27

27:                                               ; preds = %17, %16
  %28 = load i32, ptr %5, align 4
  ret i32 %28
}

; Function Attrs: nounwind uwtable
define internal i32 @get_ec_decoded_from_explicit_params(i32 noundef %0, ptr noundef %1, ptr noundef %2) #0 {
  %4 = alloca i32, align 4
  %5 = alloca i32, align 4
  %6 = alloca ptr, align 8
  %7 = alloca ptr, align 8
  %8 = alloca i32, align 4
  %9 = alloca ptr, align 8
  %10 = alloca i32, align 4
  store i32 %0, ptr %5, align 4, !tbaa !8
  store ptr %1, ptr %6, align 8, !tbaa !11
  store ptr %2, ptr %7, align 8, !tbaa !43
  call void @llvm.lifetime.start.p0(i64 4, ptr %8) #9
  store i32 0, ptr %8, align 4, !tbaa !8
  call void @llvm.lifetime.start.p0(i64 8, ptr %9) #9
  %11 = load ptr, ptr %7, align 8, !tbaa !43
  %12 = getelementptr inbounds nuw %struct.translation_ctx_st, ptr %11, i32 0, i32 6
  %13 = load ptr, ptr %12, align 8, !tbaa !40
  store ptr %13, ptr %9, align 8, !tbaa !68
  %14 = load ptr, ptr %9, align 8, !tbaa !68
  %15 = call i32 @EVP_PKEY_get_base_id(ptr noundef %14)
  switch i32 %15, label %24 [
    i32 408, label %16
  ]

16:                                               ; preds = %3
  %17 = load ptr, ptr %9, align 8, !tbaa !68
  %18 = call ptr @EVP_PKEY_get0_EC_KEY(ptr noundef %17)
  %19 = call i32 @EC_KEY_decoded_from_explicit_params(ptr noundef %18)
  store i32 %19, ptr %8, align 4, !tbaa !8
  %20 = load i32, ptr %8, align 4, !tbaa !8
  %21 = icmp slt i32 %20, 0
  br i1 %21, label %22, label %23

22:                                               ; preds = %16
  call void @ERR_new()
  call void @ERR_set_debug(ptr noundef @.str, i32 noundef 1830, ptr noundef @__func__.get_ec_decoded_from_explicit_params)
  call void (i32, i32, ptr, ...) @ERR_set_error(i32 noundef 6, i32 noundef 163, ptr noundef null)
  store i32 0, ptr %4, align 4
  store i32 1, ptr %10, align 4
  br label %31

23:                                               ; preds = %16
  br label %25

24:                                               ; preds = %3
  call void @ERR_new()
  call void @ERR_set_debug(ptr noundef @.str, i32 noundef 1836, ptr noundef @__func__.get_ec_decoded_from_explicit_params)
  call void (i32, i32, ptr, ...) @ERR_set_error(i32 noundef 6, i32 noundef 224, ptr noundef null)
  store i32 0, ptr %4, align 4
  store i32 1, ptr %10, align 4
  br label %31

25:                                               ; preds = %23
  %26 = load i32, ptr %5, align 4, !tbaa !8
  %27 = load ptr, ptr %6, align 8, !tbaa !11
  %28 = load ptr, ptr %7, align 8, !tbaa !43
  %29 = load i32, ptr %8, align 4, !tbaa !8
  %30 = call i32 @get_payload_int(i32 noundef %26, ptr noundef %27, ptr noundef %28, i32 noundef %29)
  store i32 %30, ptr %4, align 4
  store i32 1, ptr %10, align 4
  br label %31

31:                                               ; preds = %25, %24, %22
  call void @llvm.lifetime.end.p0(i64 8, ptr %9) #9
  call void @llvm.lifetime.end.p0(i64 4, ptr %8) #9
  %32 = load i32, ptr %4, align 4
  ret i32 %32
}