; Function Attrs: nounwind uwtable
define internal i32 @get_ec_decoded_from_explicit_params(i32 noundef %0, ptr noundef captures(address_is_null) %1, ptr noundef %2) #0 {
  %4 = getelementptr inbounds nuw i8, ptr %2, i64 32
  %5 = load ptr, ptr %4, align 8, !tbaa !35
  %6 = tail call i32 @EVP_PKEY_get_base_id(ptr noundef %5) #8
  %cond = icmp eq i32 %6, 408
  br i1 %cond, label %7, label %12

7:                                                ; preds = %3
  %8 = tail call ptr @EVP_PKEY_get0_EC_KEY(ptr noundef %5) #8
  %9 = tail call i32 @EC_KEY_decoded_from_explicit_params(ptr noundef %8) #8
  %10 = icmp slt i32 %9, 0
  br i1 %10, label %11, label %13

11:                                               ; preds = %7
  tail call void @ERR_new() #8
  tail call void @ERR_set_debug(ptr noundef nonnull @.str, i32 noundef 1830, ptr noundef nonnull @__func__.get_ec_decoded_from_explicit_params) #8
  tail call void (i32, i32, ptr, ...) @ERR_set_error(i32 noundef 6, i32 noundef 163, ptr noundef null) #8
  br label %get_payload_int.exit

12:                                               ; preds = %3
  tail call void @ERR_new() #8
  tail call void @ERR_set_debug(ptr noundef nonnull @.str, i32 noundef 1836, ptr noundef nonnull @__func__.get_ec_decoded_from_explicit_params) #8
  tail call void (i32, i32, ptr, ...) @ERR_set_error(i32 noundef 6, i32 noundef 224, ptr noundef null) #8
  br label %get_payload_int.exit

13:                                               ; preds = %7
  %14 = getelementptr inbounds nuw i8, ptr %2, i64 48
  %15 = load ptr, ptr %14, align 8, !tbaa !37
  %16 = getelementptr inbounds nuw i8, ptr %15, i64 8
  %17 = load i32, ptr %16, align 8, !tbaa !57
  %.not.i = icmp eq i32 %17, 1
  br i1 %.not.i, label %18, label %get_payload_int.exit

18:                                               ; preds = %13
  %19 = getelementptr inbounds nuw i8, ptr %2, i64 28
  store i32 %9, ptr %19, align 4, !tbaa !34
  store ptr null, ptr %4, align 8, !tbaa !35
  %20 = tail call i32 @default_fixup_args(i32 noundef %0, ptr noundef %1, ptr noundef nonnull %2)
  br label %get_payload_int.exit

get_payload_int.exit:                             ; preds = %18, %13, %12, %11
  %.0 = phi i32 [ 0, %11 ], [ 0, %12 ], [ %20, %18 ], [ 0, %13 ]
  ret i32 %.0
}